target datalayout = "e-m:e-p270:32:32-p271:32:32-p272:64:64-i64:64-i128:128-f80:128-n8:16:32:64-S128"
target triple = "x86_64-pc-linux-gnu"

%struct.ADPCMChannelStatus = type { i32, i16, i32, i32, i32, i32, i32, i32, i32 }

@ff_adpcm_step_table = external constant [89 x i16], align 16
@ff_adpcm_index_table = external constant [16 x i8], align 16

; Function Attrs: alwaysinline nounwind willreturn memory(none) uwtable
define internal signext i16 @av_clip_int16_c(i32 noundef %0) #3 {
  %2 = alloca i16, align 2
  %3 = alloca i32, align 4
  store i32 %0, ptr %3, align 4, !tbaa !9
  %4 = load i32, ptr %3, align 4, !tbaa !9
  %5 = add i32 %4, 32768
  %6 = and i32 %5, -65536
  %7 = icmp ne i32 %6, 0
  br i1 %7, label %8, label %13

8:                                                ; preds = %1
  %9 = load i32, ptr %3, align 4, !tbaa !9
  %10 = ashr i32 %9, 31
  %11 = xor i32 %10, 32767
  %12 = trunc i32 %11 to i16
  store i16 %12, ptr %2, align 2
  br label %16

13:                                               ; preds = %1
  %14 = load i32, ptr %3, align 4, !tbaa !9
  %15 = trunc i32 %14 to i16
  store i16 %15, ptr %2, align 2
  br label %16

16:                                               ; preds = %13, %8
  %17 = load i16, ptr %2, align 2
  ret i16 %17
}

; Function Attrs: alwaysinline nounwind willreturn memory(none) uwtable
define internal i32 @av_clip_c(i32 noundef %0, i32 noundef %1, i32 noundef %2) #3 {
  %4 = alloca i32, align 4
  %5 = alloca i32, align 4
  %6 = alloca i32, align 4
  %7 = alloca i32, align 4
  store i32 %0, ptr %5, align 4, !tbaa !9
  store i32 %1, ptr %6, align 4, !tbaa !9
  store i32 %2, ptr %7, align 4, !tbaa !9
  %8 = load i32, ptr %5, align 4, !tbaa !9
  %9 = load i32, ptr %6, align 4, !tbaa !9
  %10 = icmp slt i32 %8, %9
  br i1 %10, label %11, label %13

11:                                               ; preds = %3
  %12 = load i32, ptr %6, align 4, !tbaa !9
  store i32 %12, ptr %4, align 4
  br label %21

13:                                               ; preds = %3
  %14 = load i32, ptr %5, align 4, !tbaa !9
  %15 = load i32, ptr %7, align 4, !tbaa !9
  %16 = icmp sgt i32 %14, %15
  br i1 %16, label %17, label %19

17:                                               ; preds = %13
  %18 = load i32, ptr %7, align 4, !tbaa !9
  store i32 %18, ptr %4, align 4
  br label %21

19:                                               ; preds = %13
  %20 = load i32, ptr %5, align 4, !tbaa !9
  store i32 %20, ptr %4, align 4
  br label %21

21:                                               ; preds = %19, %17, %11
  %22 = load i32, ptr %4, align 4
  ret i32 %22
}

; Function Attrs: inlinehint nounwind uwtable
define internal signext i16 @adpcm_ima_expand_nibble(ptr noundef %0, i8 noundef signext %1, i32 noundef %2) #7 {
  %4 = alloca ptr, align 8
  %5 = alloca i8, align 1
  %6 = alloca i32, align 4
  %7 = alloca i32, align 4
  %8 = alloca i32, align 4
  %9 = alloca i32, align 4
  %10 = alloca i32, align 4
  %11 = alloca i32, align 4
  %12 = alloca i32, align 4
  store ptr %0, ptr %4, align 8, !tbaa !4
  store i8 %1, ptr %5, align 1, !tbaa !15
  store i32 %2, ptr %6, align 4, !tbaa !9
  call void @llvm.lifetime.start.p0(i64 4, ptr %7) #11
  call void @llvm.lifetime.start.p0(i64 4, ptr %8) #11
  call void @llvm.lifetime.start.p0(i64 4, ptr %9) #11
  call void @llvm.lifetime.start.p0(i64 4, ptr %10) #11
  call void @llvm.lifetime.start.p0(i64 4, ptr %11) #11
  call void @llvm.lifetime.start.p0(i64 4, ptr %12) #11
  %13 = load ptr, ptr %4, align 8, !tbaa !4
  %14 = getelementptr inbounds nuw %struct.ADPCMChannelStatus, ptr %13, i32 0, i32 1
  %15 = load i16, ptr %14, align 4, !tbaa !69
  %16 = sext i16 %15 to i64
  %17 = getelementptr inbounds [89 x i16], ptr @ff_adpcm_step_table, i64 0, i64 %16
  %18 = load i16, ptr %17, align 2, !tbaa !71
  %19 = sext i16 %18 to i32
  store i32 %19, ptr %12, align 4, !tbaa !9
  %20 = load ptr, ptr %4, align 8, !tbaa !4
  %21 = getelementptr inbounds nuw %struct.ADPCMChannelStatus, ptr %20, i32 0, i32 1
  %22 = load i16, ptr %21, align 4, !tbaa !69
  %23 = sext i16 %22 to i32
  %24 = load i8, ptr %5, align 1, !tbaa !15
  %25 = sext i8 %24 to i32
  %26 = zext i32 %25 to i64
  %27 = getelementptr inbounds nuw [16 x i8], ptr @ff_adpcm_index_table, i64 0, i64 %26
  %28 = load i8, ptr %27, align 1, !tbaa !15
  %29 = sext i8 %28 to i32
  %30 = add nsw i32 %23, %29
  store i32 %30, ptr %7, align 4, !tbaa !9
  %31 = load i32, ptr %7, align 4, !tbaa !9
  %32 = call i32 @av_clip_c(i32 noundef %31, i32 noundef 0, i32 noundef 88) #12
  store i32 %32, ptr %7, align 4, !tbaa !9
  %33 = load i8, ptr %5, align 1, !tbaa !15
  %34 = sext i8 %33 to i32
  %35 = and i32 %34, 8
  store i32 %35, ptr %9, align 4, !tbaa !9
  %36 = load i8, ptr %5, align 1, !tbaa !15
  %37 = sext i8 %36 to i32
  %38 = and i32 %37, 7
  store i32 %38, ptr %10, align 4, !tbaa !9
  %39 = load i32, ptr %10, align 4, !tbaa !9
  %40 = mul nsw i32 2, %39
  %41 = add nsw i32 %40, 1
  %42 = load i32, ptr %12, align 4, !tbaa !9
  %43 = mul nsw i32 %41, %42
  %44 = load i32, ptr %6, align 4, !tbaa !9
  %45 = ashr i32 %43, %44
  store i32 %45, ptr %11, align 4, !tbaa !9
  %46 = load ptr, ptr %4, align 8, !tbaa !4
  %47 = getelementptr inbounds nuw %struct.ADPCMChannelStatus, ptr %46, i32 0, i32 0
  %48 = load i32, ptr %47, align 4, !tbaa !70
  store i32 %48, ptr %8, align 4, !tbaa !9
  %49 = load i32, ptr %9, align 4, !tbaa !9
  %50 = icmp ne i32 %49, 0
  br i1 %50, label %51, label %55

51:                                               ; preds = %3
  %52 = load i32, ptr %11, align 4, !tbaa !9
  %53 = load i32, ptr %8, align 4, !tbaa !9
  %54 = sub nsw i32 %53, %52
  store i32 %54, ptr %8, align 4, !tbaa !9
  br label %59

55:                                               ; preds = %3
  %56 = load i32, ptr %11, align 4, !tbaa !9
  %57 = load i32, ptr %8, align 4, !tbaa !9
  %58 = add nsw i32 %57, %56
  store i32 %58, ptr %8, align 4, !tbaa !9
  br label %59

59:                                               ; preds = %55, %51
  %60 = load i32, ptr %8, align 4, !tbaa !9
  %61 = call signext i16 @av_clip_int16_c(i32 noundef %60) #12
  %62 = sext i16 %61 to i32
  %63 = load ptr, ptr %4, align 8, !tbaa !4
  %64 = getelementptr inbounds nuw %struct.ADPCMChannelStatus, ptr %63, i32 0, i32 0
  store i32 %62, ptr %64, align 4, !tbaa !70
  %65 = load i32, ptr %7, align 4, !tbaa !9
  %66 = trunc i32 %65 to i16
  %67 = load ptr, ptr %4, align 8, !tbaa !4
  %68 = getelementptr inbounds nuw %struct.ADPCMChannelStatus, ptr %67, i32 0, i32 1
  store i16 %66, ptr %68, align 4, !tbaa !69
  %69 = load ptr, ptr %4, align 8, !tbaa !4
  %70 = getelementptr inbounds nuw %struct.ADPCMChannelStatus, ptr %69, i32 0, i32 0
  %71 = load i32, ptr %70, align 4, !tbaa !70
  %72 = trunc i32 %71 to i16
  call void @llvm.lifetime.end.p0(i64 4, ptr %12) #11
  call void @llvm.lifetime.end.p0(i64 4, ptr %11) #11
  call void @llvm.lifetime.end.p0(i64 4, ptr %10) #11
  call void @llvm.lifetime.end.p0(i64 4, ptr %9) #11
  call void @llvm.lifetime.end.p0(i64 4, ptr %8) #11
  call void @llvm.lifetime.end.p0(i64 4, ptr %7) #11
  ret i16 %72
}