; Function Attrs: inlinehint mustprogress nofree norecurse nosync nounwind willreturn memory(argmem: readwrite) uwtable
define internal fastcc signext i16 @adpcm_ima_expand_nibble(ptr noundef captures(none) %0, i8 noundef signext %1, i32 noundef range(i32 3, 7) %2) unnamed_addr #7 {
  %4 = getelementptr inbounds nuw i8, ptr %0, i64 4
  %5 = load i16, ptr %4, align 4, !tbaa !47
  %6 = sext i16 %5 to i64
  %7 = getelementptr inbounds [89 x i16], ptr @ff_adpcm_step_table, i64 0, i64 %6
  %8 = load i16, ptr %7, align 2, !tbaa !58
  %9 = sext i16 %8 to i32
  %10 = sext i8 %1 to i32
  %11 = zext i32 %10 to i64
  %12 = getelementptr inbounds nuw [16 x i8], ptr @ff_adpcm_index_table, i64 0, i64 %11
  %13 = load i8, ptr %12, align 1, !tbaa !46
  %14 = shl nsw i32 %10, 1
  %15 = and i32 %14, 14
  %16 = or disjoint i32 %15, 1
  %17 = mul nsw i32 %16, %9
  %18 = ashr i32 %17, %2
  %19 = load i32, ptr %0, align 4, !tbaa !56
  %20 = and i8 %1, 8
  %.not = icmp eq i8 %20, 0
  %21 = sub nsw i32 0, %18
  %.0.p = select i1 %.not, i32 %18, i32 %21
  %.0 = add i32 %.0.p, %19
  %22 = sext i16 %5 to i32
  %23 = sext i8 %13 to i32
  %24 = add nsw i32 %23, %22
  %25 = tail call i32 @llvm.smax.i32(i32 %24, i32 0)
  %26 = tail call i32 @llvm.umin.i32(i32 %25, i32 88)
  %27 = tail call i32 @llvm.smax.i32(i32 %.0, i32 -32768)
  %28 = tail call i32 @llvm.smin.i32(i32 %27, i32 32767)
  %.0.i = trunc nsw i32 %28 to i16
  store i32 %28, ptr %0, align 4, !tbaa !56
  %29 = trunc nuw nsw i32 %26 to i16
  store i16 %29, ptr %4, align 4, !tbaa !47
  ret i16 %.0.i
}